target datalayout = "e-m:e-p270:32:32-p271:32:32-p272:64:64-i64:64-i128:128-f80:128-n8:16:32:64-S128"
target triple = "x86_64-unknown-linux-gnu"

%struct.MSGUID = type { i32, i16, i16, [8 x i8] }
%struct.QemuUUID = type { %union.anon }
%union.anon = type { %struct.anon }
%struct.anon = type { i32, i16, i16, i8, i8, [6 x i8] }
%struct.VHDXMetadataTableHeader = type { i64, i16, i16, [5 x i32] }
%struct.VHDXMetadataTableEntry = type { %struct.MSGUID, i32, i32, i32, i32 }
%struct.VHDXFileParameters = type { i32, i32 }
%struct.VHDXPage83Data = type { %struct.MSGUID }
%struct.VHDXVirtualDiskSize = type { i64 }
%struct.VHDXVirtualDiskLogicalSectorSize = type { i32 }
%struct.VHDXVirtualDiskPhysicalSectorSize = type { i32 }

@.str.1 = private unnamed_addr constant [21 x i8] c"../qemu/block/vhdx.c\00", align 1
@.str.4 = private unnamed_addr constant [13 x i8] c"guid != NULL\00", align 1
@__PRETTY_FUNCTION__.vhdx_guid_generate = private unnamed_addr constant [34 x i8] c"void vhdx_guid_generate(MSGUID *)\00", align 1
@file_param_guid = internal constant %struct.MSGUID { i32 -895391945, i16 -1482, i16 19779, [8 x i8] c"\B3\B63\F0\AAD\E7k" }, align 1
@virtual_size_guid = internal constant %struct.MSGUID { i32 799359524, i16 -13029, i16 18550, [8 x i8] c"\B2\11]\BE\D8;\F4\B8" }, align 1
@page83_guid = internal constant %struct.MSGUID { i32 -1094053205, i16 -19738, i16 17699, [8 x i8] c"\93\EF\C3\09\E0\00\C7F" }, align 1
@logical_sector_guid = internal constant %struct.MSGUID { i32 -2126397667, i16 -22161, i16 18185, [8 x i8] c"\BAG\F23\A8\FA\AB_" }, align 1
@phys_sector_guid = internal constant %struct.MSGUID { i32 -844937017, i16 17501, i16 17521, [8 x i8] c"\9C\C9\E9\88RQ\C5V" }, align 1

; Function Attrs: nounwind sspstrong uwtable
define internal zeroext i16 @cpu_to_le16(i16 noundef zeroext %v) #0 {
entry:
  %v.addr = alloca i16, align 2
  store i16 %v, ptr %v.addr, align 2
  %0 = load i16, ptr %v.addr, align 2
  ret i16 %0
}

; Function Attrs: nounwind sspstrong uwtable
define internal i64 @cpu_to_le64(i64 noundef %v) #0 {
entry:
  %v.addr = alloca i64, align 8
  store i64 %v, ptr %v.addr, align 8
  %0 = load i64, ptr %v.addr, align 8
  ret i64 %0
}

; Function Attrs: nounwind sspstrong uwtable
define internal void @cpu_to_leguids(ptr noundef %guid) #0 {
entry:
  %guid.addr = alloca ptr, align 8
  store ptr %guid, ptr %guid.addr, align 8
  %0 = load ptr, ptr %guid.addr, align 8
  %data1 = getelementptr inbounds %struct.MSGUID, ptr %0, i32 0, i32 0
  %1 = load i32, ptr %data1, align 1
  %call = call i32 @cpu_to_le32(i32 noundef %1)
  %2 = load ptr, ptr %guid.addr, align 8
  %data11 = getelementptr inbounds %struct.MSGUID, ptr %2, i32 0, i32 0
  store i32 %call, ptr %data11, align 1
  %3 = load ptr, ptr %guid.addr, align 8
  %data2 = getelementptr inbounds %struct.MSGUID, ptr %3, i32 0, i32 1
  %4 = load i16, ptr %data2, align 1
  %call2 = call zeroext i16 @cpu_to_le16(i16 noundef zeroext %4)
  %5 = load ptr, ptr %guid.addr, align 8
  %data23 = getelementptr inbounds %struct.MSGUID, ptr %5, i32 0, i32 1
  store i16 %call2, ptr %data23, align 1
  %6 = load ptr, ptr %guid.addr, align 8
  %data3 = getelementptr inbounds %struct.MSGUID, ptr %6, i32 0, i32 2
  %7 = load i16, ptr %data3, align 1
  %call4 = call zeroext i16 @cpu_to_le16(i16 noundef zeroext %7)
  %8 = load ptr, ptr %guid.addr, align 8
  %data35 = getelementptr inbounds %struct.MSGUID, ptr %8, i32 0, i32 2
  store i16 %call4, ptr %data35, align 1
  ret void
}

; Function Attrs: nounwind sspstrong uwtable
define dso_local void @vhdx_guid_generate(ptr noundef %guid) #0 {
entry:
  %guid.addr = alloca ptr, align 8
  %uuid = alloca %struct.QemuUUID, align 4
  store ptr %guid, ptr %guid.addr, align 8
  %0 = load ptr, ptr %guid.addr, align 8
  %cmp = icmp ne ptr %0, null
  br i1 %cmp, label %if.then, label %if.else

if.then:                                          ; preds = %entry
  br label %if.end

if.else:                                          ; preds = %entry
  call void @__assert_fail(ptr noundef @.str.4, ptr noundef @.str.1, i32 noundef 224, ptr noundef @__PRETTY_FUNCTION__.vhdx_guid_generate) #10
  unreachable

if.end:                                           ; preds = %if.then
  call void @qemu_uuid_generate(ptr noundef %uuid)
  %1 = load ptr, ptr %guid.addr, align 8
  call void @llvm.memcpy.p0.p0.i64(ptr align 1 %1, ptr align 4 %uuid, i64 16, i1 false)
  ret void
}

; Function Attrs: nounwind sspstrong uwtable
define internal i32 @cpu_to_le32(i32 noundef %v) #0 {
entry:
  %v.addr = alloca i32, align 4
  store i32 %v, ptr %v.addr, align 4
  %0 = load i32, ptr %v.addr, align 4
  ret i32 %0
}

; Function Attrs: nounwind sspstrong uwtable
define internal i32 @vhdx_create_new_metadata(ptr noundef %blk, i64 noundef %image_size, i32 noundef %block_size, i32 noundef %sector_size, i64 noundef %metadata_offset, i32 noundef %type) #0 {
entry:
  %blk.addr = alloca ptr, align 8
  %image_size.addr = alloca i64, align 8
  %block_size.addr = alloca i32, align 4
  %sector_size.addr = alloca i32, align 4
  %metadata_offset.addr = alloca i64, align 8
  %type.addr = alloca i32, align 4
  %ret = alloca i32, align 4
  %offset = alloca i32, align 4
  %buffer = alloca ptr, align 8
  %entry_buffer = alloca ptr, align 8
  %md_table = alloca ptr, align 8
  %md_table_entry = alloca ptr, align 8
  %mt_file_params = alloca ptr, align 8
  %mt_virtual_size = alloca ptr, align 8
  %mt_page83 = alloca ptr, align 8
  %mt_log_sector_size = alloca ptr, align 8
  %mt_phys_sector_size = alloca ptr, align 8
  store ptr %blk, ptr %blk.addr, align 8
  store i64 %image_size, ptr %image_size.addr, align 8
  store i32 %block_size, ptr %block_size.addr, align 4
  store i32 %sector_size, ptr %sector_size.addr, align 4
  store i64 %metadata_offset, ptr %metadata_offset.addr, align 8
  store i32 %type, ptr %type.addr, align 4
  store i32 0, ptr %ret, align 4
  store i32 0, ptr %offset, align 4
  store ptr null, ptr %buffer, align 8
  %call = call noalias ptr @g_malloc0(i64 noundef 40) #13
  store ptr %call, ptr %entry_buffer, align 8
  %0 = load ptr, ptr %entry_buffer, align 8
  store ptr %0, ptr %mt_file_params, align 8
  %1 = load i32, ptr %offset, align 4
  %conv = zext i32 %1 to i64
  %add = add i64 %conv, 8
  %conv1 = trunc i64 %add to i32
  store i32 %conv1, ptr %offset, align 4
  %2 = load ptr, ptr %entry_buffer, align 8
  %3 = load i32, ptr %offset, align 4
  %idx.ext = zext i32 %3 to i64
  %add.ptr = getelementptr i8, ptr %2, i64 %idx.ext
  store ptr %add.ptr, ptr %mt_virtual_size, align 8
  %4 = load i32, ptr %offset, align 4
  %conv2 = zext i32 %4 to i64
  %add3 = add i64 %conv2, 8
  %conv4 = trunc i64 %add3 to i32
  store i32 %conv4, ptr %offset, align 4
  %5 = load ptr, ptr %entry_buffer, align 8
  %6 = load i32, ptr %offset, align 4
  %idx.ext5 = zext i32 %6 to i64
  %add.ptr6 = getelementptr i8, ptr %5, i64 %idx.ext5
  store ptr %add.ptr6, ptr %mt_page83, align 8
  %7 = load i32, ptr %offset, align 4
  %conv7 = zext i32 %7 to i64
  %add8 = add i64 %conv7, 16
  %conv9 = trunc i64 %add8 to i32
  store i32 %conv9, ptr %offset, align 4
  %8 = load ptr, ptr %entry_buffer, align 8
  %9 = load i32, ptr %offset, align 4
  %idx.ext10 = zext i32 %9 to i64
  %add.ptr11 = getelementptr i8, ptr %8, i64 %idx.ext10
  store ptr %add.ptr11, ptr %mt_log_sector_size, align 8
  %10 = load i32, ptr %offset, align 4
  %conv12 = zext i32 %10 to i64
  %add13 = add i64 %conv12, 4
  %conv14 = trunc i64 %add13 to i32
  store i32 %conv14, ptr %offset, align 4
  %11 = load ptr, ptr %entry_buffer, align 8
  %12 = load i32, ptr %offset, align 4
  %idx.ext15 = zext i32 %12 to i64
  %add.ptr16 = getelementptr i8, ptr %11, i64 %idx.ext15
  store ptr %add.ptr16, ptr %mt_phys_sector_size, align 8
  %13 = load i32, ptr %block_size.addr, align 4
  %call17 = call i32 @cpu_to_le32(i32 noundef %13)
  %14 = load ptr, ptr %mt_file_params, align 8
  %block_size18 = getelementptr inbounds %struct.VHDXFileParameters, ptr %14, i32 0, i32 0
  store i32 %call17, ptr %block_size18, align 1
  %15 = load i32, ptr %type.addr, align 4
  %cmp = icmp eq i32 %15, 1
  br i1 %cmp, label %if.then, label %if.end

if.then:                                          ; preds = %entry
  %16 = load ptr, ptr %mt_file_params, align 8
  %data_bits = getelementptr inbounds %struct.VHDXFileParameters, ptr %16, i32 0, i32 1
  %17 = load i32, ptr %data_bits, align 1
  %or = or i32 %17, 1
  store i32 %or, ptr %data_bits, align 1
  %18 = load ptr, ptr %mt_file_params, align 8
  %data_bits20 = getelementptr inbounds %struct.VHDXFileParameters, ptr %18, i32 0, i32 1
  %19 = load i32, ptr %data_bits20, align 1
  %call21 = call i32 @cpu_to_le32(i32 noundef %19)
  %20 = load ptr, ptr %mt_file_params, align 8
  %data_bits22 = getelementptr inbounds %struct.VHDXFileParameters, ptr %20, i32 0, i32 1
  store i32 %call21, ptr %data_bits22, align 1
  br label %if.end

if.end:                                           ; preds = %if.then, %entry
  %21 = load ptr, ptr %mt_page83, align 8
  %page_83_data = getelementptr inbounds %struct.VHDXPage83Data, ptr %21, i32 0, i32 0
  call void @vhdx_guid_generate(ptr noundef %page_83_data)
  %22 = load ptr, ptr %mt_page83, align 8
  %page_83_data23 = getelementptr inbounds %struct.VHDXPage83Data, ptr %22, i32 0, i32 0
  call void @cpu_to_leguids(ptr noundef %page_83_data23)
  %23 = load i64, ptr %image_size.addr, align 8
  %call24 = call i64 @cpu_to_le64(i64 noundef %23)
  %24 = load ptr, ptr %mt_virtual_size, align 8
  %virtual_disk_size = getelementptr inbounds %struct.VHDXVirtualDiskSize, ptr %24, i32 0, i32 0
  store i64 %call24, ptr %virtual_disk_size, align 1
  %25 = load i32, ptr %sector_size.addr, align 4
  %call25 = call i32 @cpu_to_le32(i32 noundef %25)
  %26 = load ptr, ptr %mt_log_sector_size, align 8
  %logical_sector_size = getelementptr inbounds %struct.VHDXVirtualDiskLogicalSectorSize, ptr %26, i32 0, i32 0
  store i32 %call25, ptr %logical_sector_size, align 1
  %27 = load i32, ptr %sector_size.addr, align 4
  %call26 = call i32 @cpu_to_le32(i32 noundef %27)
  %28 = load ptr, ptr %mt_phys_sector_size, align 8
  %physical_sector_size = getelementptr inbounds %struct.VHDXVirtualDiskPhysicalSectorSize, ptr %28, i32 0, i32 0
  store i32 %call26, ptr %physical_sector_size, align 1
  %call27 = call noalias ptr @g_malloc0(i64 noundef 65536) #13
  store ptr %call27, ptr %buffer, align 8
  %29 = load ptr, ptr %buffer, align 8
  store ptr %29, ptr %md_table, align 8
  %30 = load ptr, ptr %md_table, align 8
  %signature = getelementptr inbounds %struct.VHDXMetadataTableHeader, ptr %30, i32 0, i32 0
  store i64 7022344802737087853, ptr %signature, align 1
  %31 = load ptr, ptr %md_table, align 8
  %entry_count = getelementptr inbounds %struct.VHDXMetadataTableHeader, ptr %31, i32 0, i32 2
  store i16 5, ptr %entry_count, align 1
  %32 = load ptr, ptr %md_table, align 8
  call void @vhdx_metadata_header_le_export(ptr noundef %32)
  store i32 65536, ptr %offset, align 4
  %33 = load ptr, ptr %buffer, align 8
  %add.ptr28 = getelementptr i8, ptr %33, i64 32
  store ptr %add.ptr28, ptr %md_table_entry, align 8
  %34 = load ptr, ptr %md_table_entry, align 8
  %arrayidx = getelementptr %struct.VHDXMetadataTableEntry, ptr %34, i64 0
  %item_id = getelementptr inbounds %struct.VHDXMetadataTableEntry, ptr %arrayidx, i32 0, i32 0
  call void @llvm.memcpy.p0.p0.i64(ptr align 1 %item_id, ptr align 1 @file_param_guid, i64 16, i1 false)
  %35 = load i32, ptr %offset, align 4
  %36 = load ptr, ptr %md_table_entry, align 8
  %arrayidx29 = getelementptr %struct.VHDXMetadataTableEntry, ptr %36, i64 0
  %offset30 = getelementptr inbounds %struct.VHDXMetadataTableEntry, ptr %arrayidx29, i32 0, i32 1
  store i32 %35, ptr %offset30, align 1
  %37 = load ptr, ptr %md_table_entry, align 8
  %arrayidx31 = getelementptr %struct.VHDXMetadataTableEntry, ptr %37, i64 0
  %length = getelementptr inbounds %struct.VHDXMetadataTableEntry, ptr %arrayidx31, i32 0, i32 2
  store i32 8, ptr %length, align 1
  %38 = load ptr, ptr %md_table_entry, align 8
  %arrayidx32 = getelementptr %struct.VHDXMetadataTableEntry, ptr %38, i64 0
  %data_bits33 = getelementptr inbounds %struct.VHDXMetadataTableEntry, ptr %arrayidx32, i32 0, i32 3
  %39 = load i32, ptr %data_bits33, align 1
  %or34 = or i32 %39, 4
  store i32 %or34, ptr %data_bits33, align 1
  %40 = load ptr, ptr %md_table_entry, align 8
  %arrayidx35 = getelementptr %struct.VHDXMetadataTableEntry, ptr %40, i64 0
  %length36 = getelementptr inbounds %struct.VHDXMetadataTableEntry, ptr %arrayidx35, i32 0, i32 2
  %41 = load i32, ptr %length36, align 1
  %42 = load i32, ptr %offset, align 4
  %add37 = add i32 %42, %41
  store i32 %add37, ptr %offset, align 4
  %43 = load ptr, ptr %md_table_entry, align 8
  %arrayidx38 = getelementptr %struct.VHDXMetadataTableEntry, ptr %43, i64 0
  call void @vhdx_metadata_entry_le_export(ptr noundef %arrayidx38)
  %44 = load ptr, ptr %md_table_entry, align 8
  %arrayidx39 = getelementptr %struct.VHDXMetadataTableEntry, ptr %44, i64 1
  %item_id40 = getelementptr inbounds %struct.VHDXMetadataTableEntry, ptr %arrayidx39, i32 0, i32 0
  call void @llvm.memcpy.p0.p0.i64(ptr align 1 %item_id40, ptr align 1 @virtual_size_guid, i64 16, i1 false)
  %45 = load i32, ptr %offset, align 4
  %46 = load ptr, ptr %md_table_entry, align 8
  %arrayidx41 = getelementptr %struct.VHDXMetadataTableEntry, ptr %46, i64 1
  %offset42 = getelementptr inbounds %struct.VHDXMetadataTableEntry, ptr %arrayidx41, i32 0, i32 1
  store i32 %45, ptr %offset42, align 1
  %47 = load ptr, ptr %md_table_entry, align 8
  %arrayidx43 = getelementptr %struct.VHDXMetadataTableEntry, ptr %47, i64 1
  %length44 = getelementptr inbounds %struct.VHDXMetadataTableEntry, ptr %arrayidx43, i32 0, i32 2
  store i32 8, ptr %length44, align 1
  %48 = load ptr, ptr %md_table_entry, align 8
  %arrayidx45 = getelementptr %struct.VHDXMetadataTableEntry, ptr %48, i64 1
  %data_bits46 = getelementptr inbounds %struct.VHDXMetadataTableEntry, ptr %arrayidx45, i32 0, i32 3
  %49 = load i32, ptr %data_bits46, align 1
  %or47 = or i32 %49, 6
  store i32 %or47, ptr %data_bits46, align 1
  %50 = load ptr, ptr %md_table_entry, align 8
  %arrayidx48 = getelementptr %struct.VHDXMetadataTableEntry, ptr %50, i64 1
  %length49 = getelementptr inbounds %struct.VHDXMetadataTableEntry, ptr %arrayidx48, i32 0, i32 2
  %51 = load i32, ptr %length49, align 1
  %52 = load i32, ptr %offset, align 4
  %add50 = add i32 %52, %51
  store i32 %add50, ptr %offset, align 4
  %53 = load ptr, ptr %md_table_entry, align 8
  %arrayidx51 = getelementptr %struct.VHDXMetadataTableEntry, ptr %53, i64 1
  call void @vhdx_metadata_entry_le_export(ptr noundef %arrayidx51)
  %54 = load ptr, ptr %md_table_entry, align 8
  %arrayidx52 = getelementptr %struct.VHDXMetadataTableEntry, ptr %54, i64 2
  %item_id53 = getelementptr inbounds %struct.VHDXMetadataTableEntry, ptr %arrayidx52, i32 0, i32 0
  call void @llvm.memcpy.p0.p0.i64(ptr align 1 %item_id53, ptr align 1 @page83_guid, i64 16, i1 false)
  %55 = load i32, ptr %offset, align 4
  %56 = load ptr, ptr %md_table_entry, align 8
  %arrayidx54 = getelementptr %struct.VHDXMetadataTableEntry, ptr %56, i64 2
  %offset55 = getelementptr inbounds %struct.VHDXMetadataTableEntry, ptr %arrayidx54, i32 0, i32 1
  store i32 %55, ptr %offset55, align 1
  %57 = load ptr, ptr %md_table_entry, align 8
  %arrayidx56 = getelementptr %struct.VHDXMetadataTableEntry, ptr %57, i64 2
  %length57 = getelementptr inbounds %struct.VHDXMetadataTableEntry, ptr %arrayidx56, i32 0, i32 2
  store i32 16, ptr %length57, align 1
  %58 = load ptr, ptr %md_table_entry, align 8
  %arrayidx58 = getelementptr %struct.VHDXMetadataTableEntry, ptr %58, i64 2
  %data_bits59 = getelementptr inbounds %struct.VHDXMetadataTableEntry, ptr %arrayidx58, i32 0, i32 3
  %59 = load i32, ptr %data_bits59, align 1
  %or60 = or i32 %59, 6
  store i32 %or60, ptr %data_bits59, align 1
  %60 = load ptr, ptr %md_table_entry, align 8
  %arrayidx61 = getelementptr %struct.VHDXMetadataTableEntry, ptr %60, i64 2
  %length62 = getelementptr inbounds %struct.VHDXMetadataTableEntry, ptr %arrayidx61, i32 0, i32 2
  %61 = load i32, ptr %length62, align 1
  %62 = load i32, ptr %offset, align 4
  %add63 = add i32 %62, %61
  store i32 %add63, ptr %offset, align 4
  %63 = load ptr, ptr %md_table_entry, align 8
  %arrayidx64 = getelementptr %struct.VHDXMetadataTableEntry, ptr %63, i64 2
  call void @vhdx_metadata_entry_le_export(ptr noundef %arrayidx64)
  %64 = load ptr, ptr %md_table_entry, align 8
  %arrayidx65 = getelementptr %struct.VHDXMetadataTableEntry, ptr %64, i64 3
  %item_id66 = getelementptr inbounds %struct.VHDXMetadataTableEntry, ptr %arrayidx65, i32 0, i32 0
  call void @llvm.memcpy.p0.p0.i64(ptr align 1 %item_id66, ptr align 1 @logical_sector_guid, i64 16, i1 false)
  %65 = load i32, ptr %offset, align 4
  %66 = load ptr, ptr %md_table_entry, align 8
  %arrayidx67 = getelementptr %struct.VHDXMetadataTableEntry, ptr %66, i64 3
  %offset68 = getelementptr inbounds %struct.VHDXMetadataTableEntry, ptr %arrayidx67, i32 0, i32 1
  store i32 %65, ptr %offset68, align 1
  %67 = load ptr, ptr %md_table_entry, align 8
  %arrayidx69 = getelementptr %struct.VHDXMetadataTableEntry, ptr %67, i64 3
  %length70 = getelementptr inbounds %struct.VHDXMetadataTableEntry, ptr %arrayidx69, i32 0, i32 2
  store i32 4, ptr %length70, align 1
  %68 = load ptr, ptr %md_table_entry, align 8
  %arrayidx71 = getelementptr %struct.VHDXMetadataTableEntry, ptr %68, i64 3
  %data_bits72 = getelementptr inbounds %struct.VHDXMetadataTableEntry, ptr %arrayidx71, i32 0, i32 3
  %69 = load i32, ptr %data_bits72, align 1
  %or73 = or i32 %69, 6
  store i32 %or73, ptr %data_bits72, align 1
  %70 = load ptr, ptr %md_table_entry, align 8
  %arrayidx74 = getelementptr %struct.VHDXMetadataTableEntry, ptr %70, i64 3
  %length75 = getelementptr inbounds %struct.VHDXMetadataTableEntry, ptr %arrayidx74, i32 0, i32 2
  %71 = load i32, ptr %length75, align 1
  %72 = load i32, ptr %offset, align 4
  %add76 = add i32 %72, %71
  store i32 %add76, ptr %offset, align 4
  %73 = load ptr, ptr %md_table_entry, align 8
  %arrayidx77 = getelementptr %struct.VHDXMetadataTableEntry, ptr %73, i64 3
  call void @vhdx_metadata_entry_le_export(ptr noundef %arrayidx77)
  %74 = load ptr, ptr %md_table_entry, align 8
  %arrayidx78 = getelementptr %struct.VHDXMetadataTableEntry, ptr %74, i64 4
  %item_id79 = getelementptr inbounds %struct.VHDXMetadataTableEntry, ptr %arrayidx78, i32 0, i32 0
  call void @llvm.memcpy.p0.p0.i64(ptr align 1 %item_id79, ptr align 1 @phys_sector_guid, i64 16, i1 false)
  %75 = load i32, ptr %offset, align 4
  %76 = load ptr, ptr %md_table_entry, align 8
  %arrayidx80 = getelementptr %struct.VHDXMetadataTableEntry, ptr %76, i64 4
  %offset81 = getelementptr inbounds %struct.VHDXMetadataTableEntry, ptr %arrayidx80, i32 0, i32 1
  store i32 %75, ptr %offset81, align 1
  %77 = load ptr, ptr %md_table_entry, align 8
  %arrayidx82 = getelementptr %struct.VHDXMetadataTableEntry, ptr %77, i64 4
  %length83 = getelementptr inbounds %struct.VHDXMetadataTableEntry, ptr %arrayidx82, i32 0, i32 2
  store i32 4, ptr %length83, align 1
  %78 = load ptr, ptr %md_table_entry, align 8
  %arrayidx84 = getelementptr %struct.VHDXMetadataTableEntry, ptr %78, i64 4
  %data_bits85 = getelementptr inbounds %struct.VHDXMetadataTableEntry, ptr %arrayidx84, i32 0, i32 3
  %79 = load i32, ptr %data_bits85, align 1
  %or86 = or i32 %79, 6
  store i32 %or86, ptr %data_bits85, align 1
  %80 = load ptr, ptr %md_table_entry, align 8
  %arrayidx87 = getelementptr %struct.VHDXMetadataTableEntry, ptr %80, i64 4
  call void @vhdx_metadata_entry_le_export(ptr noundef %arrayidx87)
  %81 = load ptr, ptr %blk.addr, align 8
  %82 = load i64, ptr %metadata_offset.addr, align 8
  %83 = load ptr, ptr %buffer, align 8
  %call88 = call i32 @blk_co_pwrite(ptr noundef %81, i64 noundef %82, i64 noundef 65536, ptr noundef %83, i32 noundef 0)
  store i32 %call88, ptr %ret, align 4
  %84 = load i32, ptr %ret, align 4
  %cmp89 = icmp slt i32 %84, 0
  br i1 %cmp89, label %if.then91, label %if.end92

if.then91:                                        ; preds = %if.end
  br label %exit

if.end92:                                         ; preds = %if.end
  %85 = load ptr, ptr %blk.addr, align 8
  %86 = load i64, ptr %metadata_offset.addr, align 8
  %add93 = add i64 %86, 65536
  %87 = load ptr, ptr %entry_buffer, align 8
  %call94 = call i32 @blk_co_pwrite(ptr noundef %85, i64 noundef %add93, i64 noundef 40, ptr noundef %87, i32 noundef 0)
  store i32 %call94, ptr %ret, align 4
  %88 = load i32, ptr %ret, align 4
  %cmp95 = icmp slt i32 %88, 0
  br i1 %cmp95, label %if.then97, label %if.end98

if.then97:                                        ; preds = %if.end92
  br label %exit

if.end98:                                         ; preds = %if.end92
  br label %exit

exit:                                             ; preds = %if.end98, %if.then97, %if.then91
  %89 = load ptr, ptr %buffer, align 8
  call void @g_free(ptr noundef %89)
  %90 = load ptr, ptr %entry_buffer, align 8
  call void @g_free(ptr noundef %90)
  %91 = load i32, ptr %ret, align 4
  ret i32 %91
}