; Function Attrs: nounwind sspstrong uwtable
define internal i32 @vhdx_create_new_metadata(ptr noundef %blk, i64 noundef %image_size, i32 noundef %block_size, i32 noundef %sector_size, i64 noundef %metadata_offset, i32 noundef %type) #0 {
entry:
  %uuid.i = alloca %struct.QemuUUID, align 4
  %call = tail call noalias dereferenceable_or_null(40) ptr @g_malloc0(i64 noundef 40) #18
  %add.ptr = getelementptr i8, ptr %call, i64 8
  %add.ptr6 = getelementptr i8, ptr %call, i64 16
  %add.ptr11 = getelementptr i8, ptr %call, i64 32
  %add.ptr16 = getelementptr i8, ptr %call, i64 36
  store i32 %block_size, ptr %call, align 1
  %cmp = icmp eq i32 %type, 1
  br i1 %cmp, label %if.then, label %if.end

if.then:                                          ; preds = %entry
  %data_bits = getelementptr inbounds nuw i8, ptr %call, i64 4
  %0 = load i32, ptr %data_bits, align 1
  %or = or i32 %0, 1
  store i32 %or, ptr %data_bits, align 1
  br label %if.end

if.end:                                           ; preds = %if.then, %entry
  call void @llvm.lifetime.start.p0(i64 16, ptr nonnull %uuid.i)
  %cmp.not.i = icmp eq ptr %add.ptr6, null
  br i1 %cmp.not.i, label %if.else.i, label %vhdx_guid_generate.exit

if.else.i:                                        ; preds = %if.end
  tail call void @__assert_fail(ptr noundef nonnull @.str.4, ptr noundef nonnull @.str.1, i32 noundef 224, ptr noundef nonnull @__PRETTY_FUNCTION__.vhdx_guid_generate) #16
  unreachable

vhdx_guid_generate.exit:                          ; preds = %if.end
  call void @qemu_uuid_generate(ptr noundef nonnull %uuid.i) #17
  call void @llvm.memcpy.p0.p0.i64(ptr noundef nonnull align 1 dereferenceable(16) %add.ptr6, ptr noundef nonnull align 4 dereferenceable(16) %uuid.i, i64 16, i1 false)
  call void @llvm.lifetime.end.p0(i64 16, ptr nonnull %uuid.i)
  store i64 %image_size, ptr %add.ptr, align 1
  store i32 %sector_size, ptr %add.ptr11, align 1
  store i32 %sector_size, ptr %add.ptr16, align 1
  %call27 = call noalias dereferenceable_or_null(65536) ptr @g_malloc0(i64 noundef 65536) #18
  store i64 7022344802737087853, ptr %call27, align 1
  %entry_count = getelementptr inbounds nuw i8, ptr %call27, i64 10
  store i16 5, ptr %entry_count, align 1
  call void @vhdx_metadata_header_le_export(ptr noundef nonnull %call27) #17
  %add.ptr28 = getelementptr i8, ptr %call27, i64 32
  call void @llvm.memcpy.p0.p0.i64(ptr noundef nonnull align 1 dereferenceable(16) %add.ptr28, ptr noundef nonnull align 1 dereferenceable(16) @file_param_guid, i64 16, i1 false)
  %offset30 = getelementptr i8, ptr %call27, i64 48
  store i32 65536, ptr %offset30, align 1
  %length = getelementptr i8, ptr %call27, i64 52
  store i32 8, ptr %length, align 1
  %data_bits33 = getelementptr i8, ptr %call27, i64 56
  %1 = load i32, ptr %data_bits33, align 1
  %or34 = or i32 %1, 4
  store i32 %or34, ptr %data_bits33, align 1
  call void @vhdx_metadata_entry_le_export(ptr noundef nonnull %add.ptr28) #17
  %arrayidx39 = getelementptr i8, ptr %call27, i64 64
  call void @llvm.memcpy.p0.p0.i64(ptr noundef nonnull align 1 dereferenceable(16) %arrayidx39, ptr noundef nonnull align 1 dereferenceable(16) @virtual_size_guid, i64 16, i1 false)
  %offset42 = getelementptr i8, ptr %call27, i64 80
  store i32 65544, ptr %offset42, align 1
  %length44 = getelementptr i8, ptr %call27, i64 84
  store i32 8, ptr %length44, align 1
  %data_bits46 = getelementptr i8, ptr %call27, i64 88
  %2 = load i32, ptr %data_bits46, align 1
  %or47 = or i32 %2, 6
  store i32 %or47, ptr %data_bits46, align 1
  call void @vhdx_metadata_entry_le_export(ptr noundef nonnull %arrayidx39) #17
  %arrayidx52 = getelementptr i8, ptr %call27, i64 96
  call void @llvm.memcpy.p0.p0.i64(ptr noundef nonnull align 1 dereferenceable(16) %arrayidx52, ptr noundef nonnull align 1 dereferenceable(16) @page83_guid, i64 16, i1 false)
  %offset55 = getelementptr i8, ptr %call27, i64 112
  store i32 65552, ptr %offset55, align 1
  %length57 = getelementptr i8, ptr %call27, i64 116
  store i32 16, ptr %length57, align 1
  %data_bits59 = getelementptr i8, ptr %call27, i64 120
  %3 = load i32, ptr %data_bits59, align 1
  %or60 = or i32 %3, 6
  store i32 %or60, ptr %data_bits59, align 1
  call void @vhdx_metadata_entry_le_export(ptr noundef nonnull %arrayidx52) #17
  %arrayidx65 = getelementptr i8, ptr %call27, i64 128
  call void @llvm.memcpy.p0.p0.i64(ptr noundef nonnull align 1 dereferenceable(16) %arrayidx65, ptr noundef nonnull align 1 dereferenceable(16) @logical_sector_guid, i64 16, i1 false)
  %offset68 = getelementptr i8, ptr %call27, i64 144
  store i32 65568, ptr %offset68, align 1
  %length70 = getelementptr i8, ptr %call27, i64 148
  store i32 4, ptr %length70, align 1
  %data_bits72 = getelementptr i8, ptr %call27, i64 152
  %4 = load i32, ptr %data_bits72, align 1
  %or73 = or i32 %4, 6
  store i32 %or73, ptr %data_bits72, align 1
  call void @vhdx_metadata_entry_le_export(ptr noundef nonnull %arrayidx65) #17
  %arrayidx78 = getelementptr i8, ptr %call27, i64 160
  call void @llvm.memcpy.p0.p0.i64(ptr noundef nonnull align 1 dereferenceable(16) %arrayidx78, ptr noundef nonnull align 1 dereferenceable(16) @phys_sector_guid, i64 16, i1 false)
  %offset81 = getelementptr i8, ptr %call27, i64 176
  store i32 65572, ptr %offset81, align 1
  %length83 = getelementptr i8, ptr %call27, i64 180
  store i32 4, ptr %length83, align 1
  %data_bits85 = getelementptr i8, ptr %call27, i64 184
  %5 = load i32, ptr %data_bits85, align 1
  %or86 = or i32 %5, 6
  store i32 %or86, ptr %data_bits85, align 1
  call void @vhdx_metadata_entry_le_export(ptr noundef nonnull %arrayidx78) #17
  %call88 = call i32 @blk_co_pwrite(ptr noundef %blk, i64 noundef %metadata_offset, i64 noundef 65536, ptr noundef %call27, i32 noundef 0) #17
  %cmp89 = icmp slt i32 %call88, 0
  br i1 %cmp89, label %exit, label %if.end92

if.end92:                                         ; preds = %vhdx_guid_generate.exit
  %add93 = add i64 %metadata_offset, 65536
  %call94 = call i32 @blk_co_pwrite(ptr noundef %blk, i64 noundef %add93, i64 noundef 40, ptr noundef nonnull %call, i32 noundef 0) #17
  br label %exit

exit:                                             ; preds = %if.end92, %vhdx_guid_generate.exit
  %ret.0 = phi i32 [ %call88, %vhdx_guid_generate.exit ], [ %call94, %if.end92 ]
  call void @g_free(ptr noundef nonnull %call27) #17
  call void @g_free(ptr noundef nonnull %call) #17
  ret i32 %ret.0
}